Certificate:
    Data:
        Version: 3 (0x2)
        Serial Number: 1 (0x1)
    Signature Algorithm: sha256WithRSAEncryption
        Issuer: CN=hss.openair4G.eur, C=FR, ST=PACA, L=Aix, O=Eurecom, OU=CM
        Validity
            Not Before: Nov  7 12:31:25 2017 GMT
            Not After : Nov  7 12:31:25 2018 GMT
        Subject: C=FR, ST=PACA, O=Eurecom, OU=CM, CN=hss.openair4G.eur
        Subject Public Key Info:
            Public Key Algorithm: rsaEncryption
                Public-Key: (1024 bit)
                Modulus:
                    00:b7:71:7c:2a:46:3e:16:c9:bf:35:48:ea:7a:4a:
                    7c:e3:a3:7a:06:b9:2b:02:1b:8a:a0:ee:9f:46:7c:
                    63:d8:95:df:86:7a:10:d4:c3:c7:8f:e8:9f:5d:63:
                    89:84:e1:5f:95:f5:23:fe:82:a8:f0:fb:8b:ea:af:
                    00:66:ef:0b:15:65:f3:6e:1c:83:f0:91:e7:2f:fe:
                    ff:41:0b:27:17:f3:f5:46:76:9a:d5:87:7d:ce:81:
                    0d:f6:f8:dc:49:f8:e9:a2:17:ae:94:38:52:c5:1e:
                    24:28:05:ec:16:01:b3:3c:9b:fc:c7:57:dc:1c:8b:
                    17:81:40:a8:0e:9d:c2:c7:6f
                Exponent: 65537 (0x10001)
        X509v3 extensions:
            X509v3 Basic Constraints: 
                CA:FALSE
            Netscape Comment: 
                OpenSSL Generated Certificate
            X509v3 Subject Key Identifier: 
                DE:AB:9D:E5:D7:F8:DE:CB:C7:F7:67:82:F5:E1:AB:13:C5:20:AB:2D
            X509v3 Authority Key Identifier: 
                keyid:5B:02:64:CE:EA:77:68:F7:15:A0:22:80:18:B4:EC:92:4A:06:08:DB

    Signature Algorithm: sha256WithRSAEncryption
         94:e9:c1:20:d3:05:65:94:ed:57:fd:12:54:17:7d:6a:01:51:
         81:95:84:54:97:48:87:89:24:e0:0b:f1:fc:6f:c4:8a:de:7c:
         14:e8:2c:b4:04:a5:e1:7c:f0:76:56:f2:da:06:7d:07:7c:b8:
         b8:d1:23:1a:bd:a2:e0:1d:08:26:ae:5d:eb:15:47:92:7f:69:
         fd:47:4c:88:16:4e:87:9d:d9:18:2d:54:49:06:7e:9d:43:31:
         8c:85:01:00:e1:d5:d0:cf:d9:80:bd:0c:16:1f:cd:f0:ed:a3:
         22:16:c8:01:f2:9d:f7:fb:87:3c:5e:4a:d0:ac:92:3e:00:26:
         9d:b5
-----BEGIN CERTIFICATE-----
MIICrTCCAhagAwIBAgIBATANBgkqhkiG9w0BAQsFADBlMRowGAYDVQQDDBFoc3Mu
b3BlbmFpcjRHLmV1cjELMAkGA1UEBhMCRlIxDTALBgNVBAgMBFBBQ0ExDDAKBgNV
BAcMA0FpeDEQMA4GA1UECgwHRXVyZWNvbTELMAkGA1UECwwCQ00wHhcNMTcxMTA3
MTIzMTI1WhcNMTgxMTA3MTIzMTI1WjBXMQswCQYDVQQGEwJGUjENMAsGA1UECAwE
UEFDQTEQMA4GA1UECgwHRXVyZWNvbTELMAkGA1UECwwCQ00xGjAYBgNVBAMMEWhz
cy5vcGVuYWlyNEcuZXVyMIGfMA0GCSqGSIb3DQEBAQUAA4GNADCBiQKBgQC3cXwq
Rj4Wyb81SOp6Snzjo3oGuSsCG4qg7p9GfGPYld+GehDUw8eP6J9dY4mE4V+V9SP+
gqjw+4vqrwBm7wsVZfNuHIPwkecv/v9BCycX8/VGdprVh33OgQ32+NxJ+OmiF66U
OFLFHiQoBewWAbM8m/zHV9wcixeBQKgOncLHbwIDAQABo3sweTAJBgNVHRMEAjAA
MCwGCWCGSAGG+EIBDQQfFh1PcGVuU1NMIEdlbmVyYXRlZCBDZXJ0aWZpY2F0ZTAd
BgNVHQ4EFgQU3qud5df43svH92eC9eGrE8Ugqy0wHwYDVR0jBBgwFoAUWwJkzup3
aPcVoCKAGLTskkoGCNswDQYJKoZIhvcNAQELBQADgYEAlOnBINMFZZTtV/0SVBd9
agFRgZWEVJdIh4kk4Avx/G/Eit58FOgstASl4Xzwdlby2gZ9B3y4uNEjGr2i4B0I
Jq5d6xVHkn9p/UdMiBZOh53ZGC1USQZ+nUMxjIUBAOHV0M/ZgL0MFh/N8O2jIhbI
AfKd9/uHPF5K0KySPgAmnbU=
-----END CERTIFICATE-----
