Certificate:
    Data:
        Version: 3 (0x2)
        Serial Number: 1 (0x1)
    Signature Algorithm: sha256WithRSAEncryption
        Issuer: CN=william.openair4G.eur, C=FR, ST=PACA, L=Aix, O=Eurecom, OU=CM
        Validity
            Not Before: Nov  2 13:55:44 2017 GMT
            Not After : Nov  2 13:55:44 2018 GMT
        Subject: C=FR, ST=PACA, O=Eurecom, OU=CM, CN=william.openair4G.eur
        Subject Public Key Info:
            Public Key Algorithm: rsaEncryption
                Public-Key: (1024 bit)
                Modulus:
                    00:c9:71:92:a1:4d:6d:fc:22:55:4b:b8:27:9a:b7:
                    f5:22:bf:cc:c2:58:5d:e1:4f:8c:19:dd:63:93:e1:
                    91:ee:be:40:3c:fa:10:97:25:84:e0:89:61:0c:d0:
                    7f:bb:ce:29:07:a0:bb:e5:11:bf:81:4a:92:ca:45:
                    53:45:ca:47:4f:1c:5e:04:7b:59:35:af:aa:56:44:
                    7c:96:5e:fd:bb:59:8a:08:9b:43:e5:52:4c:c6:36:
                    bd:10:51:c3:34:05:74:12:a7:01:05:d6:eb:80:57:
                    97:50:ff:d8:c0:4c:13:76:07:9a:66:61:8c:ec:91:
                    99:7f:94:6b:6e:0c:10:b0:01
                Exponent: 65537 (0x10001)
        X509v3 extensions:
            X509v3 Basic Constraints: 
                CA:FALSE
            Netscape Comment: 
                OpenSSL Generated Certificate
            X509v3 Subject Key Identifier: 
                54:89:98:19:72:7D:8C:A9:8D:A4:77:A5:DE:70:7C:9E:42:D1:85:9D
            X509v3 Authority Key Identifier: 
                keyid:A5:19:F1:39:9F:37:80:48:27:F9:4F:E4:F7:FF:41:24:9A:5B:F5:CB

    Signature Algorithm: sha256WithRSAEncryption
         15:5c:35:3d:2b:0d:ed:bc:ca:e2:5d:94:78:3e:b0:8a:6c:e3:
         34:2c:cd:e0:2f:cc:6a:ec:9f:60:23:ba:0b:7b:08:2f:ee:53:
         6a:f0:ba:97:81:64:68:a1:07:72:d5:8e:12:1a:b3:0a:eb:19:
         9e:9b:29:4a:b9:17:2e:1b:ea:ad:a3:bb:d6:3e:3d:e4:ec:b7:
         e3:e0:32:4d:97:19:d4:a8:ed:69:0d:c4:99:63:c5:f2:4c:99:
         b2:c9:62:72:49:6c:ea:34:a9:47:f0:4a:bb:ec:3f:26:c9:86:
         5e:0f:a6:eb:1a:ad:6d:cd:6c:2a:52:94:f3:58:79:92:ac:19:
         54:42
-----BEGIN CERTIFICATE-----
MIICtTCCAh6gAwIBAgIBATANBgkqhkiG9w0BAQsFADBpMR4wHAYDVQQDDBV3aWxs
aWFtLm9wZW5haXI0Ry5ldXIxCzAJBgNVBAYTAkZSMQ0wCwYDVQQIDARQQUNBMQww
CgYDVQQHDANBaXgxEDAOBgNVBAoMB0V1cmVjb20xCzAJBgNVBAsMAkNNMB4XDTE3
MTEwMjEzNTU0NFoXDTE4MTEwMjEzNTU0NFowWzELMAkGA1UEBhMCRlIxDTALBgNV
BAgMBFBBQ0ExEDAOBgNVBAoMB0V1cmVjb20xCzAJBgNVBAsMAkNNMR4wHAYDVQQD
DBV3aWxsaWFtLm9wZW5haXI0Ry5ldXIwgZ8wDQYJKoZIhvcNAQEBBQADgY0AMIGJ
AoGBAMlxkqFNbfwiVUu4J5q39SK/zMJYXeFPjBndY5Phke6+QDz6EJclhOCJYQzQ
f7vOKQegu+URv4FKkspFU0XKR08cXgR7WTWvqlZEfJZe/btZigibQ+VSTMY2vRBR
wzQFdBKnAQXW64BXl1D/2MBME3YHmmZhjOyRmX+Ua24MELABAgMBAAGjezB5MAkG
A1UdEwQCMAAwLAYJYIZIAYb4QgENBB8WHU9wZW5TU0wgR2VuZXJhdGVkIENlcnRp
ZmljYXRlMB0GA1UdDgQWBBRUiZgZcn2MqY2kd6XecHyeQtGFnTAfBgNVHSMEGDAW
gBSlGfE5nzeASCf5T+T3/0Ekmlv1yzANBgkqhkiG9w0BAQsFAAOBgQAVXDU9Kw3t
vMriXZR4PrCKbOM0LM3gL8xq7J9gI7oLewgv7lNq8LqXgWRooQdy1Y4SGrMK6xme
mylKuRcuG+qto7vWPj3k7Lfj4DJNlxnUqO1pDcSZY8XyTJmyyWJySWzqNKlH8Eq7
7D8myYZeD6brGq1tzWwqUpTzWHmSrBlUQg==
-----END CERTIFICATE-----
